target datalayout = "e-m:e-p270:32:32-p271:32:32-p272:64:64-i64:64-i128:128-f80:128-n8:16:32:64-S128"
target triple = "x86_64-pc-linux-gnu"

%struct.ident_t = type { i32, i32, i32, i32, ptr }
%"class.ncnn::Mat" = type { ptr, ptr, i64, i32, ptr, i32, i32, i32, i32, i32, i64 }
%"class.ncnn::Option" = type { i8, i32, ptr, ptr, i32, i8, i8, i8, i8, i8, i8, i8, i8, i8, i8, i8, i8, i8, i8, i8, i8, i8, i8, i8, i8, i32, i8, i8, i8, i8, i8, i8, i8, i8, i8, i8, i8, i8 }

@2 = private unnamed_addr constant %struct.ident_t { i32 0, i32 2, i32 0, i32 22, ptr @0 }, align 8

; Function Attrs: alwaysinline mustprogress nounwind uwtable
define linkonce_odr hidden noundef ptr @_ZNK4ncnn3MatcvPKT_IfEEv(ptr noundef nonnull align 8 dereferenceable(72) %0) #4 comdat align 2 {
  %2 = alloca ptr, align 8
  store ptr %0, ptr %2, align 8, !tbaa !67
  %3 = load ptr, ptr %2, align 8
  %4 = getelementptr inbounds nuw %"class.ncnn::Mat", ptr %3, i32 0, i32 0
  %5 = load ptr, ptr %4, align 8, !tbaa !97
  ret ptr %5
}

; Function Attrs: alwaysinline mustprogress nounwind uwtable
define linkonce_odr hidden noundef ptr @_ZNK4ncnn3MatcvPKT_IaEEv(ptr noundef nonnull align 8 dereferenceable(72) %0) #4 comdat align 2 {
  %2 = alloca ptr, align 8
  store ptr %0, ptr %2, align 8, !tbaa !67
  %3 = load ptr, ptr %2, align 8
  %4 = getelementptr inbounds nuw %"class.ncnn::Mat", ptr %3, i32 0, i32 0
  %5 = load ptr, ptr %4, align 8, !tbaa !97
  ret ptr %5
}

; Function Attrs: mustprogress nounwind uwtable
define internal void @_ZN4ncnnL28convdw3x3s2_int8_dequant_sseERKNS_3MatERS0_S2_S2_St6vectorIfSaIfEERKNS_6OptionE(ptr noundef nonnull align 8 dereferenceable(72) %0, ptr noundef nonnull align 8 dereferenceable(72) %1, ptr noundef nonnull align 8 dereferenceable(72) %2, ptr noundef nonnull align 8 dereferenceable(72) %3, ptr noundef %4, ptr noundef nonnull align 8 dereferenceable(64) %5) #3 {
  %7 = alloca ptr, align 8
  %8 = alloca ptr, align 8
  %9 = alloca ptr, align 8
  %10 = alloca ptr, align 8
  %11 = alloca ptr, align 8
  %12 = alloca ptr, align 8
  %13 = alloca i32, align 4
  %14 = alloca i32, align 4
  %15 = alloca i32, align 4
  %16 = alloca i32, align 4
  %17 = alloca i32, align 4
  %18 = alloca ptr, align 8
  %19 = alloca ptr, align 8
  %20 = call i32 @__kmpc_global_thread_num(ptr @2)
  store ptr %0, ptr %7, align 8, !tbaa !67
  store ptr %1, ptr %8, align 8, !tbaa !67
  store ptr %2, ptr %9, align 8, !tbaa !67
  store ptr %3, ptr %10, align 8, !tbaa !67
  store ptr %4, ptr %11, align 8, !tbaa !215
  store ptr %5, ptr %12, align 8, !tbaa !11
  call void @llvm.lifetime.start.p0(i64 4, ptr %13) #16
  %21 = load ptr, ptr %7, align 8, !tbaa !67
  %22 = getelementptr inbounds nuw %"class.ncnn::Mat", ptr %21, i32 0, i32 6
  %23 = load i32, ptr %22, align 4, !tbaa !68
  store i32 %23, ptr %13, align 4, !tbaa !52
  call void @llvm.lifetime.start.p0(i64 4, ptr %14) #16
  %24 = load ptr, ptr %8, align 8, !tbaa !67
  %25 = getelementptr inbounds nuw %"class.ncnn::Mat", ptr %24, i32 0, i32 6
  %26 = load i32, ptr %25, align 4, !tbaa !68
  store i32 %26, ptr %14, align 4, !tbaa !52
  call void @llvm.lifetime.start.p0(i64 4, ptr %15) #16
  %27 = load ptr, ptr %8, align 8, !tbaa !67
  %28 = getelementptr inbounds nuw %"class.ncnn::Mat", ptr %27, i32 0, i32 7
  %29 = load i32, ptr %28, align 8, !tbaa !69
  store i32 %29, ptr %15, align 4, !tbaa !52
  call void @llvm.lifetime.start.p0(i64 4, ptr %16) #16
  %30 = load ptr, ptr %8, align 8, !tbaa !67
  %31 = getelementptr inbounds nuw %"class.ncnn::Mat", ptr %30, i32 0, i32 9
  %32 = load i32, ptr %31, align 8, !tbaa !70
  store i32 %32, ptr %16, align 4, !tbaa !52
  call void @llvm.lifetime.start.p0(i64 4, ptr %17) #16
  %33 = load i32, ptr %13, align 4, !tbaa !52
  %34 = load i32, ptr %14, align 4, !tbaa !52
  %35 = mul nsw i32 2, %34
  %36 = sub nsw i32 %33, %35
  %37 = load i32, ptr %13, align 4, !tbaa !52
  %38 = add nsw i32 %36, %37
  store i32 %38, ptr %17, align 4, !tbaa !52
  call void @llvm.lifetime.start.p0(i64 8, ptr %18) #16
  %39 = load ptr, ptr %9, align 8, !tbaa !67
  %40 = call noundef ptr @_ZNK4ncnn3MatcvPKT_IaEEv(ptr noundef nonnull align 8 dereferenceable(72) %39)
  store ptr %40, ptr %18, align 8, !tbaa !125
  call void @llvm.lifetime.start.p0(i64 8, ptr %19) #16
  %41 = load ptr, ptr %10, align 8, !tbaa !67
  %42 = call noundef ptr @_ZNK4ncnn3MatcvPKT_IfEEv(ptr noundef nonnull align 8 dereferenceable(72) %41)
  store ptr %42, ptr %19, align 8, !tbaa !122
  %43 = load ptr, ptr %12, align 8, !tbaa !11
  %44 = getelementptr inbounds nuw %"class.ncnn::Option", ptr %43, i32 0, i32 1
  %45 = load i32, ptr %44, align 4, !tbaa !85
  call void @__kmpc_push_num_threads(ptr @2, i32 %20, i32 %45)
  %46 = load ptr, ptr %8, align 8, !tbaa !67
  %47 = load ptr, ptr %7, align 8, !tbaa !67
  call void (ptr, i32, ptr, ...) @__kmpc_fork_call(ptr @2, i32 10, ptr @_ZN4ncnnL28convdw3x3s2_int8_dequant_sseERKNS_3MatERS0_S2_S2_St6vectorIfSaIfEERKNS_6OptionE.omp_outlined, ptr %16, ptr %46, ptr %19, ptr %4, ptr %18, ptr %47, ptr %13, ptr %15, ptr %14, ptr %17)
  call void @llvm.lifetime.end.p0(i64 8, ptr %19) #16
  call void @llvm.lifetime.end.p0(i64 8, ptr %18) #16
  call void @llvm.lifetime.end.p0(i64 4, ptr %17) #16
  call void @llvm.lifetime.end.p0(i64 4, ptr %16) #16
  call void @llvm.lifetime.end.p0(i64 4, ptr %15) #16
  call void @llvm.lifetime.end.p0(i64 4, ptr %14) #16
  call void @llvm.lifetime.end.p0(i64 4, ptr %13) #16
  ret void
}